target datalayout = "e-m:e-p270:32:32-p271:32:32-p272:64:64-i64:64-i128:128-f80:128-n8:16:32:64-S128"
target triple = "x86_64-pc-linux-gnu"

%struct.ForEachState = type { ptr, i32 }
%struct.List = type { i32, i32, i32, ptr, [0 x %union.ListCell] }
%union.ListCell = type { ptr }
%struct.RelationData = type { %struct.RelFileLocator, ptr, i32, i32, i8, i8, i8, i8, i8, i32, i32, i32, i32, ptr, ptr, i32, %struct.LockInfoData, ptr, ptr, ptr, ptr, ptr, i8, ptr, ptr, ptr, ptr, ptr, ptr, i32, ptr, i8, ptr, ptr, i32, i8, i32, ptr, i8, ptr, ptr, ptr, ptr, ptr, ptr, ptr, i32, ptr, ptr, ptr, ptr, ptr, ptr, ptr, ptr, ptr, ptr, ptr, ptr, ptr, ptr, ptr, ptr, ptr, ptr, ptr, i32, i8, ptr }
%struct.RelFileLocator = type { i32, i32, i32 }
%struct.LockInfoData = type { %struct.LockRelId }
%struct.LockRelId = type { i32, i32 }
%struct.FormData_pg_class = type { i32, %struct.nameData, i32, i32, i32, i32, i32, i32, i32, i32, float, i32, i32, i8, i8, i8, i8, i16, i16, i8, i8, i8, i8, i8, i8, i8, i8, i32, i32, i32 }
%struct.nameData = type { [64 x i8] }
%struct.FormData_pg_index = type { i32, i32, i16, i16, i8, i8, i8, i8, i8, i8, i8, i8, i8, i8, i8, %struct.int2vector }
%struct.int2vector = type { i32, i32, i32, i32, i32, i32, [0 x i16] }
%struct.HeapTupleData = type { i32, %struct.ItemPointerData, i32, ptr }
%struct.ItemPointerData = type { %struct.BlockIdData, i16 }
%struct.BlockIdData = type { i16, i16 }
%struct.HeapTupleHeaderData = type { %union.anon, %struct.ItemPointerData, i16, i16, i8, [0 x i8] }
%union.anon = type { %struct.HeapTupleFields }
%struct.HeapTupleFields = type { i32, i32, %union.anon.0 }
%union.anon.0 = type { i32 }

@.str.2 = private unnamed_addr constant [10 x i8] c"cluster.c\00", align 1
@.str.15 = private unnamed_addr constant [49 x i8] c"cannot mark index clustered in partitioned table\00", align 1
@__func__.mark_index_clustered = private unnamed_addr constant [21 x i8] c"mark_index_clustered\00", align 1
@.str.16 = private unnamed_addr constant [33 x i8] c"cache lookup failed for index %u\00", align 1
@.str.17 = private unnamed_addr constant [35 x i8] c"cannot cluster on invalid index %u\00", align 1
@object_access_hook = external global ptr, align 8

; Function Attrs: inlinehint nounwind uwtable
define internal ptr @GETSTRUCT(ptr noundef %0) #7 {
  %2 = alloca ptr, align 8
  store ptr %0, ptr %2, align 8
  %3 = load ptr, ptr %2, align 8
  %4 = getelementptr inbounds nuw %struct.HeapTupleData, ptr %3, i32 0, i32 3
  %5 = load ptr, ptr %4, align 8
  %6 = load ptr, ptr %2, align 8
  %7 = getelementptr inbounds nuw %struct.HeapTupleData, ptr %6, i32 0, i32 3
  %8 = load ptr, ptr %7, align 8
  %9 = getelementptr inbounds nuw %struct.HeapTupleHeaderData, ptr %8, i32 0, i32 4
  %10 = load i8, ptr %9, align 2
  %11 = zext i8 %10 to i32
  %12 = sext i32 %11 to i64
  %13 = getelementptr inbounds i8, ptr %5, i64 %12
  ret ptr %13
}

; Function Attrs: inlinehint nounwind uwtable
define internal i64 @ObjectIdGetDatum(i32 noundef %0) #7 {
  %2 = alloca i32, align 4
  store i32 %0, ptr %2, align 4
  %3 = load i32, ptr %2, align 4
  %4 = zext i32 %3 to i64
  ret i64 %4
}

; Function Attrs: nounwind uwtable
define dso_local void @mark_index_clustered(ptr noundef %0, i32 noundef %1, i1 noundef zeroext %2) #0 {
  %4 = alloca ptr, align 8
  %5 = alloca i32, align 4
  %6 = alloca i8, align 1
  %7 = alloca ptr, align 8
  %8 = alloca ptr, align 8
  %9 = alloca ptr, align 8
  %10 = alloca ptr, align 8
  %11 = alloca i32, align 4
  %12 = alloca %struct.ForEachState, align 8
  %13 = alloca i32, align 4
  store ptr %0, ptr %4, align 8
  store i32 %1, ptr %5, align 4
  %14 = zext i1 %2 to i8
  store i8 %14, ptr %6, align 1
  call void @llvm.lifetime.start.p0(i64 8, ptr %7) #9
  call void @llvm.lifetime.start.p0(i64 8, ptr %8) #9
  call void @llvm.lifetime.start.p0(i64 8, ptr %9) #9
  call void @llvm.lifetime.start.p0(i64 8, ptr %10) #9
  %15 = load ptr, ptr %4, align 8
  %16 = getelementptr inbounds nuw %struct.RelationData, ptr %15, i32 0, i32 13
  %17 = load ptr, ptr %16, align 8
  %18 = getelementptr inbounds nuw %struct.FormData_pg_class, ptr %17, i32 0, i32 16
  %19 = load i8, ptr %18, align 1
  %20 = sext i8 %19 to i32
  %21 = icmp eq i32 %20, 112
  br i1 %21, label %22, label %34

22:                                               ; preds = %3
  br label %23

23:                                               ; preds = %22
  br i1 true, label %24, label %26

24:                                               ; preds = %23
  %25 = call zeroext i1 @errstart_cold(i32 noundef 21, ptr noundef null) #11
  br i1 %25, label %28, label %31

26:                                               ; preds = %23
  %27 = call zeroext i1 @errstart(i32 noundef 21, ptr noundef null)
  br i1 %27, label %28, label %31

28:                                               ; preds = %26, %24
  %29 = call i32 @errcode(i32 noundef 1088)
  %30 = call i32 (ptr, ...) @errmsg(ptr noundef @.str.15)
  call void @errfinish(ptr noundef @.str.2, i32 noundef 565, ptr noundef @__func__.mark_index_clustered)
  br label %31

31:                                               ; preds = %28, %26, %24
  unreachable

32:                                               ; No predecessors!
  br label %33

33:                                               ; preds = %32
  br label %34

34:                                               ; preds = %33, %3
  %35 = load i32, ptr %5, align 4
  %36 = icmp ne i32 %35, 0
  br i1 %36, label %37, label %42

37:                                               ; preds = %34
  %38 = load i32, ptr %5, align 4
  %39 = call zeroext i1 @get_index_isclustered(i32 noundef %38)
  br i1 %39, label %40, label %41

40:                                               ; preds = %37
  store i32 1, ptr %11, align 4
  br label %156

41:                                               ; preds = %37
  br label %42

42:                                               ; preds = %41, %34
  %43 = call ptr @table_open(i32 noundef 2610, i32 noundef 3)
  store ptr %43, ptr %9, align 8
  call void @llvm.lifetime.start.p0(i64 16, ptr %12) #9
  %44 = getelementptr inbounds nuw %struct.ForEachState, ptr %12, i32 0, i32 0
  %45 = load ptr, ptr %4, align 8
  %46 = call ptr @RelationGetIndexList(ptr noundef %45)
  store ptr %46, ptr %44, align 8
  %47 = getelementptr inbounds nuw %struct.ForEachState, ptr %12, i32 0, i32 1
  store i32 0, ptr %47, align 8
  %48 = getelementptr i8, ptr %12, i64 12
  call void @llvm.memset.p0.i64(ptr align 4 %48, i8 0, i64 4, i1 false)
  br label %49

49:                                               ; preds = %150, %42
  %50 = getelementptr inbounds nuw %struct.ForEachState, ptr %12, i32 0, i32 0
  %51 = load ptr, ptr %50, align 8
  %52 = icmp ne ptr %51, null
  br i1 %52, label %53, label %70

53:                                               ; preds = %49
  %54 = getelementptr inbounds nuw %struct.ForEachState, ptr %12, i32 0, i32 1
  %55 = load i32, ptr %54, align 8
  %56 = getelementptr inbounds nuw %struct.ForEachState, ptr %12, i32 0, i32 0
  %57 = load ptr, ptr %56, align 8
  %58 = getelementptr inbounds nuw %struct.List, ptr %57, i32 0, i32 1
  %59 = load i32, ptr %58, align 4
  %60 = icmp slt i32 %55, %59
  br i1 %60, label %61, label %70

61:                                               ; preds = %53
  %62 = getelementptr inbounds nuw %struct.ForEachState, ptr %12, i32 0, i32 0
  %63 = load ptr, ptr %62, align 8
  %64 = getelementptr inbounds nuw %struct.List, ptr %63, i32 0, i32 3
  %65 = load ptr, ptr %64, align 8
  %66 = getelementptr inbounds nuw %struct.ForEachState, ptr %12, i32 0, i32 1
  %67 = load i32, ptr %66, align 8
  %68 = sext i32 %67 to i64
  %69 = getelementptr inbounds %union.ListCell, ptr %65, i64 %68
  store ptr %69, ptr %10, align 8
  br label %71

70:                                               ; preds = %53, %49
  store ptr null, ptr %10, align 8
  br label %71

71:                                               ; preds = %70, %61
  %72 = phi i32 [ 1, %61 ], [ 0, %70 ]
  %73 = icmp ne i32 %72, 0
  br i1 %73, label %75, label %74

74:                                               ; preds = %71
  store i32 4, ptr %11, align 4
  call void @llvm.lifetime.end.p0(i64 16, ptr %12) #9
  br label %154

75:                                               ; preds = %71
  call void @llvm.lifetime.start.p0(i64 4, ptr %13) #9
  %76 = load ptr, ptr %10, align 8
  %77 = load i32, ptr %76, align 8
  store i32 %77, ptr %13, align 4
  %78 = load i32, ptr %13, align 4
  %79 = call i64 @ObjectIdGetDatum(i32 noundef %78)
  %80 = call ptr @SearchSysCacheCopy(i32 noundef 34, i64 noundef %79, i64 noundef 0, i64 noundef 0, i64 noundef 0)
  store ptr %80, ptr %7, align 8
  %81 = load ptr, ptr %7, align 8
  %82 = icmp ne ptr %81, null
  br i1 %82, label %95, label %83

83:                                               ; preds = %75
  br label %84

84:                                               ; preds = %83
  br i1 true, label %85, label %87

85:                                               ; preds = %84
  %86 = call zeroext i1 @errstart_cold(i32 noundef 21, ptr noundef null) #11
  br i1 %86, label %89, label %92

87:                                               ; preds = %84
  %88 = call zeroext i1 @errstart(i32 noundef 21, ptr noundef null)
  br i1 %88, label %89, label %92

89:                                               ; preds = %87, %85
  %90 = load i32, ptr %13, align 4
  %91 = call i32 (ptr, ...) @errmsg_internal(ptr noundef @.str.16, i32 noundef %90)
  call void @errfinish(ptr noundef @.str.2, i32 noundef 588, ptr noundef @__func__.mark_index_clustered)
  br label %92

92:                                               ; preds = %89, %87, %85
  unreachable

93:                                               ; No predecessors!
  br label %94

94:                                               ; preds = %93
  br label %95

95:                                               ; preds = %94, %75
  %96 = load ptr, ptr %7, align 8
  %97 = call ptr @GETSTRUCT(ptr noundef %96)
  store ptr %97, ptr %8, align 8
  %98 = load ptr, ptr %8, align 8
  %99 = getelementptr inbounds nuw %struct.FormData_pg_index, ptr %98, i32 0, i32 9
  %100 = load i8, ptr %99, align 1, !range !6, !noundef !7
  %101 = trunc i8 %100 to i1
  br i1 %101, label %102, label %109

102:                                              ; preds = %95
  %103 = load ptr, ptr %8, align 8
  %104 = getelementptr inbounds nuw %struct.FormData_pg_index, ptr %103, i32 0, i32 9
  store i8 0, ptr %104, align 1
  %105 = load ptr, ptr %9, align 8
  %106 = load ptr, ptr %7, align 8
  %107 = getelementptr inbounds nuw %struct.HeapTupleData, ptr %106, i32 0, i32 1
  %108 = load ptr, ptr %7, align 8
  call void @CatalogTupleUpdate(ptr noundef %105, ptr noundef %107, ptr noundef %108)
  br label %138

109:                                              ; preds = %95
  %110 = load i32, ptr %13, align 4
  %111 = load i32, ptr %5, align 4
  %112 = icmp eq i32 %110, %111
  br i1 %112, label %113, label %137

113:                                              ; preds = %109
  %114 = load ptr, ptr %8, align 8
  %115 = getelementptr inbounds nuw %struct.FormData_pg_index, ptr %114, i32 0, i32 10
  %116 = load i8, ptr %115, align 2, !range !6, !noundef !7
  %117 = trunc i8 %116 to i1
  br i1 %117, label %130, label %118

118:                                              ; preds = %113
  br label %119

119:                                              ; preds = %118
  br i1 true, label %120, label %122

120:                                              ; preds = %119
  %121 = call zeroext i1 @errstart_cold(i32 noundef 21, ptr noundef null) #11
  br i1 %121, label %124, label %127

122:                                              ; preds = %119
  %123 = call zeroext i1 @errstart(i32 noundef 21, ptr noundef null)
  br i1 %123, label %124, label %127

124:                                              ; preds = %122, %120
  %125 = load i32, ptr %5, align 4
  %126 = call i32 (ptr, ...) @errmsg_internal(ptr noundef @.str.17, i32 noundef %125)
  call void @errfinish(ptr noundef @.str.2, i32 noundef 604, ptr noundef @__func__.mark_index_clustered)
  br label %127

127:                                              ; preds = %124, %122, %120
  unreachable

128:                                              ; No predecessors!
  br label %129

129:                                              ; preds = %128
  br label %130

130:                                              ; preds = %129, %113
  %131 = load ptr, ptr %8, align 8
  %132 = getelementptr inbounds nuw %struct.FormData_pg_index, ptr %131, i32 0, i32 9
  store i8 1, ptr %132, align 1
  %133 = load ptr, ptr %9, align 8
  %134 = load ptr, ptr %7, align 8
  %135 = getelementptr inbounds nuw %struct.HeapTupleData, ptr %134, i32 0, i32 1
  %136 = load ptr, ptr %7, align 8
  call void @CatalogTupleUpdate(ptr noundef %133, ptr noundef %135, ptr noundef %136)
  br label %137

137:                                              ; preds = %130, %109
  br label %138

138:                                              ; preds = %137, %102
  br label %139

139:                                              ; preds = %138
  %140 = load ptr, ptr @object_access_hook, align 8
  %141 = icmp ne ptr %140, null
  br i1 %141, label %142, label %146

142:                                              ; preds = %139
  %143 = load i32, ptr %13, align 4
  %144 = load i8, ptr %6, align 1, !range !6, !noundef !7
  %145 = trunc i8 %144 to i1
  call void @RunObjectPostAlterHook(i32 noundef 2610, i32 noundef %143, i32 noundef 0, i32 noundef 0, i1 noundef zeroext %145)
  br label %146

146:                                              ; preds = %142, %139
  br label %147

147:                                              ; preds = %146
  br label %148

148:                                              ; preds = %147
  %149 = load ptr, ptr %7, align 8
  call void @heap_freetuple(ptr noundef %149)
  call void @llvm.lifetime.end.p0(i64 4, ptr %13) #9
  br label %150

150:                                              ; preds = %148
  %151 = getelementptr inbounds nuw %struct.ForEachState, ptr %12, i32 0, i32 1
  %152 = load i32, ptr %151, align 8
  %153 = add i32 %152, 1
  store i32 %153, ptr %151, align 8
  br label %49, !llvm.loop !12

154:                                              ; preds = %74
  %155 = load ptr, ptr %9, align 8
  call void @table_close(ptr noundef %155, i32 noundef 3)
  store i32 0, ptr %11, align 4
  br label %156

156:                                              ; preds = %154, %40
  call void @llvm.lifetime.end.p0(i64 8, ptr %10) #9
  call void @llvm.lifetime.end.p0(i64 8, ptr %9) #9
  call void @llvm.lifetime.end.p0(i64 8, ptr %8) #9
  call void @llvm.lifetime.end.p0(i64 8, ptr %7) #9
  %157 = load i32, ptr %11, align 4
  switch i32 %157, label %159 [
    i32 0, label %158
    i32 1, label %158
  ]

158:                                              ; preds = %156, %156
  ret void

159:                                              ; preds = %156
  unreachable
}