; Function Attrs: nounwind uwtable
define dso_local void @mark_index_clustered(ptr noundef %0, i32 noundef %1, i1 noundef zeroext %2) local_unnamed_addr #0 {
  %4 = getelementptr inbounds nuw i8, ptr %0, i64 56
  %5 = load ptr, ptr %4, align 8
  %6 = getelementptr inbounds nuw i8, ptr %5, i64 115
  %7 = load i8, ptr %6, align 1
  %8 = icmp eq i8 %7, 112
  br i1 %8, label %9, label %13

9:                                                ; preds = %3
  %10 = tail call zeroext i1 @errstart_cold(i32 noundef 21, ptr noundef null) #9
  tail call void @llvm.assume(i1 %10)
  %11 = tail call i32 @errcode(i32 noundef 1088) #7
  %12 = tail call i32 (ptr, ...) @errmsg(ptr noundef nonnull @.str.15) #7
  tail call void @errfinish(ptr noundef nonnull @.str.2, i32 noundef 565, ptr noundef nonnull @__func__.mark_index_clustered) #7
  unreachable

13:                                               ; preds = %3
  %.not = icmp eq i32 %1, 0
  br i1 %.not, label %16, label %14

14:                                               ; preds = %13
  %15 = tail call zeroext i1 @get_index_isclustered(i32 noundef %1) #7
  br i1 %15, label %55, label %16

16:                                               ; preds = %14, %13
  %17 = tail call ptr @table_open(i32 noundef 2610, i32 noundef 3) #7
  %18 = tail call ptr @RelationGetIndexList(ptr noundef nonnull %0) #7
  %.not32 = icmp eq ptr %18, null
  br i1 %.not32, label %._crit_edge, label %.lr.ph

.lr.ph:                                           ; preds = %16
  %19 = getelementptr inbounds nuw i8, ptr %18, i64 4
  %20 = getelementptr inbounds nuw i8, ptr %18, i64 16
  %21 = load i32, ptr %19, align 4
  %22 = icmp sgt i32 %21, 0
  br i1 %22, label %.lr.ph44, label %._crit_edge

._crit_edge:                                      ; preds = %51, %.lr.ph, %16
  tail call void @table_close(ptr noundef %17, i32 noundef 3) #7
  br label %55

.lr.ph44:                                         ; preds = %.lr.ph, %51
  %indvars.iv = phi i64 [ %indvars.iv.next, %51 ], [ 0, %.lr.ph ]
  %23 = load ptr, ptr %20, align 8
  %24 = getelementptr inbounds nuw %union.ListCell, ptr %23, i64 %indvars.iv
  %25 = load i32, ptr %24, align 8
  %26 = zext i32 %25 to i64
  %27 = tail call ptr @SearchSysCacheCopy(i32 noundef 34, i64 noundef %26, i64 noundef 0, i64 noundef 0, i64 noundef 0) #7
  %.not34 = icmp eq ptr %27, null
  br i1 %.not34, label %.split, label %30

.split:                                           ; preds = %.lr.ph44
  %28 = tail call zeroext i1 @errstart_cold(i32 noundef 21, ptr noundef null) #9
  tail call void @llvm.assume(i1 %28)
  %29 = tail call i32 (ptr, ...) @errmsg_internal(ptr noundef nonnull @.str.16, i32 noundef %25) #7
  tail call void @errfinish(ptr noundef nonnull @.str.2, i32 noundef 588, ptr noundef nonnull @__func__.mark_index_clustered) #7
  unreachable

30:                                               ; preds = %.lr.ph44
  %31 = getelementptr i8, ptr %27, i64 16
  %.val = load ptr, ptr %31, align 8
  %32 = getelementptr inbounds nuw i8, ptr %.val, i64 22
  %33 = load i8, ptr %32, align 2
  %34 = zext i8 %33 to i64
  %35 = getelementptr inbounds nuw i8, ptr %.val, i64 %34
  %36 = getelementptr inbounds nuw i8, ptr %35, i64 17
  %37 = load i8, ptr %36, align 1, !range !4, !noundef !5
  %38 = trunc nuw i8 %37 to i1
  br i1 %38, label %.sink.split, label %39

39:                                               ; preds = %30
  %40 = icmp eq i32 %25, %1
  br i1 %40, label %41, label %48

41:                                               ; preds = %39
  %42 = getelementptr inbounds nuw i8, ptr %35, i64 18
  %43 = load i8, ptr %42, align 2, !range !4, !noundef !5
  %44 = trunc nuw i8 %43 to i1
  br i1 %44, label %.sink.split, label %.split42

.split42:                                         ; preds = %41
  %45 = tail call zeroext i1 @errstart_cold(i32 noundef 21, ptr noundef null) #9
  tail call void @llvm.assume(i1 %45)
  %46 = tail call i32 (ptr, ...) @errmsg_internal(ptr noundef nonnull @.str.17, i32 noundef %1) #7
  tail call void @errfinish(ptr noundef nonnull @.str.2, i32 noundef 604, ptr noundef nonnull @__func__.mark_index_clustered) #7
  unreachable

.sink.split:                                      ; preds = %41, %30
  %.sink = phi i8 [ 0, %30 ], [ 1, %41 ]
  store i8 %.sink, ptr %36, align 1
  %47 = getelementptr inbounds nuw i8, ptr %27, i64 4
  tail call void @CatalogTupleUpdate(ptr noundef %17, ptr noundef nonnull %47, ptr noundef nonnull %27) #7
  br label %48

48:                                               ; preds = %.sink.split, %39
  %49 = load ptr, ptr @object_access_hook, align 8
  %.not35 = icmp eq ptr %49, null
  br i1 %.not35, label %51, label %50

50:                                               ; preds = %48
  tail call void @RunObjectPostAlterHook(i32 noundef 2610, i32 noundef %25, i32 noundef 0, i32 noundef 0, i1 noundef zeroext %2) #7
  br label %51

51:                                               ; preds = %50, %48
  tail call void @heap_freetuple(ptr noundef nonnull %27) #7
  %indvars.iv.next = add nuw nsw i64 %indvars.iv, 1
  %52 = load i32, ptr %19, align 4
  %53 = sext i32 %52 to i64
  %54 = icmp slt i64 %indvars.iv.next, %53
  br i1 %54, label %.lr.ph44, label %._crit_edge

55:                                               ; preds = %14, %._crit_edge
  ret void
}